target datalayout = "e-m:e-p270:32:32-p271:32:32-p272:64:64-i64:64-i128:128-f80:128-n8:16:32:64-S128"
target triple = "x86_64-pc-linux-gnu"

%struct.SpecifierOptList = type { ptr, i32, ptr, i32 }
%struct.SpecifierOpt = type { ptr, %struct.StreamSpecifier, %union.anon }
%struct.StreamSpecifier = type { i32, i32, i64, i32, i8, i8, i32, ptr, ptr, ptr }
%union.anon = type { ptr }

; Function Attrs: nounwind uwtable
define void @opt_match_per_stream_int(ptr noundef %0, ptr noundef %1, ptr noundef %2, ptr noundef %3, ptr noundef %4) #0 {
  %6 = alloca ptr, align 8
  %7 = alloca ptr, align 8
  %8 = alloca ptr, align 8
  %9 = alloca ptr, align 8
  %10 = alloca ptr, align 8
  %11 = alloca i32, align 4
  store ptr %0, ptr %6, align 8, !tbaa !26
  store ptr %1, ptr %7, align 8, !tbaa !4
  store ptr %2, ptr %8, align 8, !tbaa !27
  store ptr %3, ptr %9, align 8, !tbaa !29
  store ptr %4, ptr %10, align 8, !tbaa !52
  call void @llvm.lifetime.start.p0(i64 4, ptr %11) #12
  %12 = load ptr, ptr %6, align 8, !tbaa !26
  %13 = load ptr, ptr %7, align 8, !tbaa !4
  %14 = load ptr, ptr %8, align 8, !tbaa !27
  %15 = load ptr, ptr %9, align 8, !tbaa !29
  %16 = call i32 @opt_match_per_stream(ptr noundef %12, i32 noundef 3, ptr noundef %13, ptr noundef %14, ptr noundef %15)
  store i32 %16, ptr %11, align 4, !tbaa !16
  %17 = load i32, ptr %11, align 4, !tbaa !16
  %18 = icmp ugt i32 %17, 0
  br i1 %18, label %19, label %30

19:                                               ; preds = %5
  %20 = load ptr, ptr %7, align 8, !tbaa !4
  %21 = getelementptr inbounds nuw %struct.SpecifierOptList, ptr %20, i32 0, i32 0
  %22 = load ptr, ptr %21, align 8, !tbaa !17
  %23 = load i32, ptr %11, align 4, !tbaa !16
  %24 = sub i32 %23, 1
  %25 = zext i32 %24 to i64
  %26 = getelementptr inbounds nuw %struct.SpecifierOpt, ptr %22, i64 %25
  %27 = getelementptr inbounds nuw %struct.SpecifierOpt, ptr %26, i32 0, i32 2
  %28 = load i32, ptr %27, align 8, !tbaa !9
  %29 = load ptr, ptr %10, align 8, !tbaa !52
  store i32 %28, ptr %29, align 4, !tbaa !16
  br label %30

30:                                               ; preds = %19, %5
  call void @llvm.lifetime.end.p0(i64 4, ptr %11) #12
  ret void
}