; Function Attrs: nounwind uwtable
define void @opt_match_per_stream_int(ptr noundef %0, ptr noundef readonly captures(none) %1, ptr noundef %2, ptr noundef %3, ptr noundef writeonly captures(none) %4) local_unnamed_addr #0 {
  %6 = tail call fastcc i32 @opt_match_per_stream(ptr noundef %0, i32 noundef 3, ptr noundef %1, ptr noundef %2, ptr noundef %3)
  %.not = icmp eq i32 %6, 0
  br i1 %.not, label %13, label %7

7:                                                ; preds = %5
  %8 = load ptr, ptr %1, align 8, !tbaa !13
  %9 = add nsw i32 %6, -1
  %10 = zext i32 %9 to i64
  %11 = getelementptr inbounds nuw %struct.SpecifierOpt, ptr %8, i64 %10, i32 2
  %12 = load i32, ptr %11, align 8, !tbaa !19
  store i32 %12, ptr %4, align 4, !tbaa !38
  br label %13

13:                                               ; preds = %7, %5
  ret void
}